; Function Attrs: mustprogress uwtable
define void @_ZN6marisa8grimoire2io6Reader4openEPKc(ptr noundef nonnull align 8 captures(none) dereferenceable(25) %0, ptr noundef readonly %1) local_unnamed_addr #8 align 2 personality ptr @__gxx_personality_v0 {
  %3 = alloca %"class.marisa::grimoire::io::Reader", align 8
  %4 = icmp eq ptr %1, null
  br i1 %4, label %5, label %11

5:                                                ; preds = %2
  %6 = tail call ptr @__cxa_allocate_exception(i64 32) #19
  store ptr getelementptr inbounds nuw inrange(-16, 24) (i8, ptr @_ZTVN6marisa9ExceptionE, i64 16), ptr %6, align 8, !tbaa !17
  %7 = getelementptr inbounds nuw i8, ptr %6, i64 8
  store ptr @.str, ptr %7, align 8, !tbaa !19
  %8 = getelementptr inbounds nuw i8, ptr %6, i64 16
  store i32 27, ptr %8, align 8, !tbaa !24
  %9 = getelementptr inbounds nuw i8, ptr %6, i64 20
  store i32 2, ptr %9, align 4, !tbaa !25
  %10 = getelementptr inbounds nuw i8, ptr %6, i64 24
  store ptr @.str.1, ptr %10, align 8, !tbaa !26
  tail call void @__cxa_throw(ptr nonnull %6, ptr nonnull @_ZTIN6marisa9ExceptionE, ptr nonnull @_ZNSt9exceptionD2Ev) #21
  unreachable

11:                                               ; preds = %2
  call void @llvm.lifetime.start.p0(i64 32, ptr nonnull %3) #19
  call void @_ZN6marisa8grimoire2io6ReaderC1Ev(ptr noundef nonnull align 8 dereferenceable(25) %3)
  %12 = call noalias ptr @fopen(ptr noundef nonnull readonly %1, ptr noundef nonnull @.str.5)
  %13 = icmp eq ptr %12, null
  br i1 %13, label %14, label %20

14:                                               ; preds = %11
  %15 = call ptr @__cxa_allocate_exception(i64 32) #19
  store ptr getelementptr inbounds nuw inrange(-16, 24) (i8, ptr @_ZTVN6marisa9ExceptionE, i64 16), ptr %15, align 8, !tbaa !17
  %16 = getelementptr inbounds nuw i8, ptr %15, i64 8
  store ptr @.str, ptr %16, align 8, !tbaa !19
  %17 = getelementptr inbounds nuw i8, ptr %15, i64 16
  store i32 94, ptr %17, align 8, !tbaa !24
  %18 = getelementptr inbounds nuw i8, ptr %15, i64 20
  store i32 9, ptr %18, align 4, !tbaa !25
  %19 = getelementptr inbounds nuw i8, ptr %15, i64 24
  store ptr @.str.6, ptr %19, align 8, !tbaa !26
  invoke void @__cxa_throw(ptr nonnull %15, ptr nonnull @_ZTIN6marisa9ExceptionE, ptr nonnull @_ZNSt9exceptionD2Ev) #21
          to label %.noexc unwind label %33

.noexc:                                           ; preds = %14
  unreachable

20:                                               ; preds = %11
  %21 = getelementptr inbounds nuw i8, ptr %3, i64 24
  %22 = load ptr, ptr %0, align 8, !tbaa !27
  store ptr %12, ptr %0, align 8, !tbaa !27
  store ptr %22, ptr %3, align 8, !tbaa !27
  %23 = getelementptr inbounds nuw i8, ptr %0, i64 8
  %24 = getelementptr inbounds nuw i8, ptr %3, i64 8
  %25 = load i32, ptr %23, align 8, !tbaa !28
  %26 = load i32, ptr %24, align 8, !tbaa !28
  store i32 %26, ptr %23, align 8, !tbaa !28
  store i32 %25, ptr %24, align 8, !tbaa !28
  %27 = getelementptr inbounds nuw i8, ptr %0, i64 16
  %28 = getelementptr inbounds nuw i8, ptr %3, i64 16
  %29 = load ptr, ptr %27, align 8, !tbaa !29
  %30 = load ptr, ptr %28, align 8, !tbaa !29
  store ptr %30, ptr %27, align 8, !tbaa !29
  store ptr %29, ptr %28, align 8, !tbaa !29
  %31 = getelementptr inbounds nuw i8, ptr %0, i64 24
  %32 = load i8, ptr %31, align 8, !tbaa !30, !range !15, !noundef !16
  store i8 1, ptr %31, align 8, !tbaa !30
  store i8 %32, ptr %21, align 8, !tbaa !30
  call void @_ZN6marisa8grimoire2io6ReaderD1Ev(ptr noundef nonnull align 8 dereferenceable(25) %3) #19
  call void @llvm.lifetime.end.p0(i64 32, ptr nonnull %3) #19
  ret void

33:                                               ; preds = %14
  %34 = landingpad { ptr, i32 }
          cleanup
  call void @_ZN6marisa8grimoire2io6ReaderD1Ev(ptr noundef nonnull align 8 dereferenceable(25) %3) #19
  call void @llvm.lifetime.end.p0(i64 32, ptr nonnull %3) #19
  resume { ptr, i32 } %34
}